target datalayout = "e-m:e-p270:32:32-p271:32:32-p272:64:64-i64:64-i128:128-f80:128-n8:16:32:64-S128"
target triple = "x86_64-pc-linux-gnu"

%struct.Ivy_Obj_t_ = type { i32, i32, i32, i32, ptr, ptr, ptr, ptr, ptr, ptr, ptr, ptr }
%struct.Vec_Ptr_t_ = type { i32, i32, ptr }

; Function Attrs: inlinehint nounwind uwtable
define internal void @Vec_PtrClear(ptr noundef %0) #1 {
  %2 = alloca ptr, align 8
  store ptr %0, ptr %2, align 8, !tbaa !34
  %3 = load ptr, ptr %2, align 8, !tbaa !34
  %4 = getelementptr inbounds nuw %struct.Vec_Ptr_t_, ptr %3, i32 0, i32 1
  store i32 0, ptr %4, align 4, !tbaa !35
  ret void
}

; Function Attrs: inlinehint nounwind uwtable
define internal ptr @Ivy_Regular(ptr noundef %0) #1 {
  %2 = alloca ptr, align 8
  store ptr %0, ptr %2, align 8, !tbaa !8
  %3 = load ptr, ptr %2, align 8, !tbaa !8
  %4 = ptrtoint ptr %3 to i64
  %5 = and i64 %4, -2
  %6 = inttoptr i64 %5 to ptr
  ret ptr %6
}

; Function Attrs: inlinehint nounwind uwtable
define internal ptr @Vec_PtrEntry(ptr noundef %0, i32 noundef %1) #1 {
  %3 = alloca ptr, align 8
  %4 = alloca i32, align 4
  store ptr %0, ptr %3, align 8, !tbaa !34
  store i32 %1, ptr %4, align 4, !tbaa !23
  %5 = load ptr, ptr %3, align 8, !tbaa !34
  %6 = getelementptr inbounds nuw %struct.Vec_Ptr_t_, ptr %5, i32 0, i32 2
  %7 = load ptr, ptr %6, align 8, !tbaa !37
  %8 = load i32, ptr %4, align 4, !tbaa !23
  %9 = sext i32 %8 to i64
  %10 = getelementptr inbounds ptr, ptr %7, i64 %9
  %11 = load ptr, ptr %10, align 8, !tbaa !38
  ret ptr %11
}

; Function Attrs: inlinehint nounwind uwtable
define internal i32 @Vec_PtrSize(ptr noundef %0) #1 {
  %2 = alloca ptr, align 8
  store ptr %0, ptr %2, align 8, !tbaa !34
  %3 = load ptr, ptr %2, align 8, !tbaa !34
  %4 = getelementptr inbounds nuw %struct.Vec_Ptr_t_, ptr %3, i32 0, i32 1
  %5 = load i32, ptr %4, align 4, !tbaa !35
  ret i32 %5
}

; Function Attrs: nounwind uwtable
define void @Ivy_ManCollectCone(ptr noundef %0, ptr noundef %1, ptr noundef %2) #0 {
  %4 = alloca ptr, align 8
  %5 = alloca ptr, align 8
  %6 = alloca ptr, align 8
  %7 = alloca ptr, align 8
  %8 = alloca i32, align 4
  store ptr %0, ptr %4, align 8, !tbaa !8
  store ptr %1, ptr %5, align 8, !tbaa !34
  store ptr %2, ptr %6, align 8, !tbaa !34
  call void @llvm.lifetime.start.p0(i64 8, ptr %7) #8
  call void @llvm.lifetime.start.p0(i64 4, ptr %8) #8
  store i32 0, ptr %8, align 4, !tbaa !23
  br label %9

9:                                                ; preds = %27, %3
  %10 = load i32, ptr %8, align 4, !tbaa !23
  %11 = load ptr, ptr %5, align 8, !tbaa !34
  %12 = call i32 @Vec_PtrSize(ptr noundef %11)
  %13 = icmp slt i32 %10, %12
  br i1 %13, label %14, label %18

14:                                               ; preds = %9
  %15 = load ptr, ptr %5, align 8, !tbaa !34
  %16 = load i32, ptr %8, align 4, !tbaa !23
  %17 = call ptr @Vec_PtrEntry(ptr noundef %15, i32 noundef %16)
  store ptr %17, ptr %7, align 8, !tbaa !8
  br label %18

18:                                               ; preds = %14, %9
  %19 = phi i1 [ false, %9 ], [ true, %14 ]
  br i1 %19, label %20, label %30

20:                                               ; preds = %18
  %21 = load ptr, ptr %7, align 8, !tbaa !8
  %22 = call ptr @Ivy_Regular(ptr noundef %21)
  %23 = getelementptr inbounds nuw %struct.Ivy_Obj_t_, ptr %22, i32 0, i32 2
  %24 = load i32, ptr %23, align 8
  %25 = and i32 %24, -17
  %26 = or i32 %25, 16
  store i32 %26, ptr %23, align 8
  br label %27

27:                                               ; preds = %20
  %28 = load i32, ptr %8, align 4, !tbaa !23
  %29 = add nsw i32 %28, 1
  store i32 %29, ptr %8, align 4, !tbaa !23
  br label %9, !llvm.loop !48

30:                                               ; preds = %18
  %31 = load ptr, ptr %6, align 8, !tbaa !34
  call void @Vec_PtrClear(ptr noundef %31)
  %32 = load ptr, ptr %4, align 8, !tbaa !8
  %33 = load ptr, ptr %6, align 8, !tbaa !34
  call void @Ivy_ManCollectCone_rec(ptr noundef %32, ptr noundef %33)
  store i32 0, ptr %8, align 4, !tbaa !23
  br label %34

34:                                               ; preds = %52, %30
  %35 = load i32, ptr %8, align 4, !tbaa !23
  %36 = load ptr, ptr %5, align 8, !tbaa !34
  %37 = call i32 @Vec_PtrSize(ptr noundef %36)
  %38 = icmp slt i32 %35, %37
  br i1 %38, label %39, label %43

39:                                               ; preds = %34
  %40 = load ptr, ptr %5, align 8, !tbaa !34
  %41 = load i32, ptr %8, align 4, !tbaa !23
  %42 = call ptr @Vec_PtrEntry(ptr noundef %40, i32 noundef %41)
  store ptr %42, ptr %7, align 8, !tbaa !8
  br label %43

43:                                               ; preds = %39, %34
  %44 = phi i1 [ false, %34 ], [ true, %39 ]
  br i1 %44, label %45, label %55

45:                                               ; preds = %43
  %46 = load ptr, ptr %7, align 8, !tbaa !8
  %47 = call ptr @Ivy_Regular(ptr noundef %46)
  %48 = getelementptr inbounds nuw %struct.Ivy_Obj_t_, ptr %47, i32 0, i32 2
  %49 = load i32, ptr %48, align 8
  %50 = and i32 %49, -17
  %51 = or i32 %50, 0
  store i32 %51, ptr %48, align 8
  br label %52

52:                                               ; preds = %45
  %53 = load i32, ptr %8, align 4, !tbaa !23
  %54 = add nsw i32 %53, 1
  store i32 %54, ptr %8, align 4, !tbaa !23
  br label %34, !llvm.loop !49

55:                                               ; preds = %43
  call void @llvm.lifetime.end.p0(i64 4, ptr %8) #8
  call void @llvm.lifetime.end.p0(i64 8, ptr %7) #8
  ret void
}