; Function Attrs: nounwind uwtable
define void @Ivy_ManCollectCone(ptr noundef %0, ptr noundef readonly captures(none) %1, ptr noundef %2) local_unnamed_addr #0 {
  %4 = getelementptr i8, ptr %1, i64 4
  %.val1619 = load i32, ptr %4, align 4, !tbaa !26
  %5 = icmp sgt i32 %.val1619, 0
  br i1 %5, label %.lr.ph, label %.critedge

.lr.ph:                                           ; preds = %3
  %6 = getelementptr i8, ptr %1, i64 8
  br label %7

7:                                                ; preds = %.lr.ph, %7
  %indvars.iv = phi i64 [ 0, %.lr.ph ], [ %indvars.iv.next, %7 ]
  %.val18 = load ptr, ptr %6, align 8, !tbaa !29
  %8 = getelementptr inbounds nuw ptr, ptr %.val18, i64 %indvars.iv
  %9 = load ptr, ptr %8, align 8, !tbaa !30
  %10 = ptrtoint ptr %9 to i64
  %11 = and i64 %10, -2
  %12 = inttoptr i64 %11 to ptr
  %13 = getelementptr inbounds nuw i8, ptr %12, i64 8
  %14 = load i32, ptr %13, align 8
  %15 = or i32 %14, 16
  store i32 %15, ptr %13, align 8
  %indvars.iv.next = add nuw nsw i64 %indvars.iv, 1
  %.val16 = load i32, ptr %4, align 4, !tbaa !26
  %16 = sext i32 %.val16 to i64
  %17 = icmp slt i64 %indvars.iv.next, %16
  br i1 %17, label %7, label %.critedge, !llvm.loop !41

.critedge:                                        ; preds = %7, %3
  %18 = getelementptr inbounds nuw i8, ptr %2, i64 4
  store i32 0, ptr %18, align 4, !tbaa !26
  tail call void @Ivy_ManCollectCone_rec(ptr noundef %0, ptr noundef %2)
  %.val21 = load i32, ptr %4, align 4, !tbaa !26
  %19 = icmp sgt i32 %.val21, 0
  br i1 %19, label %.lr.ph23, label %.critedge2

.lr.ph23:                                         ; preds = %.critedge
  %20 = getelementptr i8, ptr %1, i64 8
  br label %21

21:                                               ; preds = %.lr.ph23, %21
  %indvars.iv25 = phi i64 [ 0, %.lr.ph23 ], [ %indvars.iv.next26, %21 ]
  %.val17 = load ptr, ptr %20, align 8, !tbaa !29
  %22 = getelementptr inbounds nuw ptr, ptr %.val17, i64 %indvars.iv25
  %23 = load ptr, ptr %22, align 8, !tbaa !30
  %24 = ptrtoint ptr %23 to i64
  %25 = and i64 %24, -2
  %26 = inttoptr i64 %25 to ptr
  %27 = getelementptr inbounds nuw i8, ptr %26, i64 8
  %28 = load i32, ptr %27, align 8
  %29 = and i32 %28, -17
  store i32 %29, ptr %27, align 8
  %indvars.iv.next26 = add nuw nsw i64 %indvars.iv25, 1
  %.val = load i32, ptr %4, align 4, !tbaa !26
  %30 = sext i32 %.val to i64
  %31 = icmp slt i64 %indvars.iv.next26, %30
  br i1 %31, label %21, label %.critedge2, !llvm.loop !42

.critedge2:                                       ; preds = %21, %.critedge
  ret void
}